; Function Attrs: mustprogress uwtable
define hidden void @_ZN6google8protobuf8internal23SerializeMessageNoTableEPKNS0_11MessageLiteEPNS1_11ArrayOutputE(ptr noundef %0, ptr noundef captures(none) %1) local_unnamed_addr #4 personality ptr @__gxx_personality_v0 {
  %3 = alloca %"class.google::protobuf::io::ArrayOutputStream", align 8
  %4 = alloca %"class.google::protobuf::io::CodedOutputStream", align 8
  call void @llvm.lifetime.start.p0(i64 32, ptr nonnull %3) #14
  %5 = load ptr, ptr %1, align 8, !tbaa !22
  call void @_ZN6google8protobuf2io17ArrayOutputStreamC1EPvii(ptr noundef nonnull align 8 dereferenceable(32) %3, ptr noundef %5, i32 noundef 2147483647, i32 noundef -1)
  call void @llvm.lifetime.start.p0(i64 80, ptr nonnull %4) #14
  call void @_ZN6google8protobuf2io17CodedOutputStreamC2EPNS1_20ZeroCopyOutputStreamEb(ptr noundef nonnull align 8 dereferenceable(80) %4, ptr noundef nonnull %3, i1 noundef zeroext true)
  %6 = getelementptr inbounds nuw i8, ptr %1, i64 8
  %7 = load i8, ptr %6, align 8, !tbaa !24, !range !25, !noundef !26
  %8 = getelementptr inbounds nuw i8, ptr %4, i64 58
  store i8 %7, ptr %8, align 2, !tbaa !27
  %9 = getelementptr inbounds nuw i8, ptr %4, i64 64
  %10 = load ptr, ptr %9, align 8, !tbaa !17
  %11 = load ptr, ptr %0, align 8, !tbaa !3
  %12 = getelementptr inbounds nuw i8, ptr %11, i64 88
  %13 = load ptr, ptr %12, align 8
  %14 = invoke noundef ptr %13(ptr noundef nonnull align 8 dereferenceable(16) %0, ptr noundef %10, ptr noundef nonnull %4)
          to label %15 unwind label %24

15:                                               ; preds = %2
  store ptr %14, ptr %9, align 8, !tbaa !17
  %16 = invoke noundef i64 @_ZNK6google8protobuf2io19EpsCopyOutputStream9ByteCountEPh(ptr noundef nonnull align 8 dereferenceable(80) %4, ptr noundef %14)
          to label %17 unwind label %24

17:                                               ; preds = %15
  %18 = getelementptr inbounds nuw i8, ptr %4, i64 72
  %19 = load i64, ptr %18, align 8, !tbaa !28
  %20 = sub nsw i64 %16, %19
  %21 = load ptr, ptr %1, align 8, !tbaa !22
  %sext = shl i64 %20, 32
  %22 = ashr exact i64 %sext, 32
  %23 = getelementptr inbounds i8, ptr %21, i64 %22
  store ptr %23, ptr %1, align 8, !tbaa !22
  call void @_ZN6google8protobuf2io17CodedOutputStreamD1Ev(ptr noundef nonnull align 8 dereferenceable(80) %4) #14
  call void @llvm.lifetime.end.p0(i64 80, ptr nonnull %4) #14
  call void @llvm.lifetime.end.p0(i64 32, ptr nonnull %3) #14
  ret void

24:                                               ; preds = %15, %2
  %25 = landingpad { ptr, i32 }
          cleanup
  call void @_ZN6google8protobuf2io17CodedOutputStreamD1Ev(ptr noundef nonnull align 8 dereferenceable(80) %4) #14
  call void @llvm.lifetime.end.p0(i64 80, ptr nonnull %4) #14
  call void @llvm.lifetime.end.p0(i64 32, ptr nonnull %3) #14
  resume { ptr, i32 } %25
}